; ModuleID = '46/2224.c'
source_filename = "46/2224.c"
target datalayout = "e-m:e-p270:32:32-p271:32:32-p272:64:64-i64:64-f80:128-n8:16:32:64-S128"
target triple = "x86_64-pc-linux-gnu"

@.str = private unnamed_addr constant [5 x i8] c"%d%d\00", align 1
@.str.1 = private unnamed_addr constant [3 x i8] c"%d\00", align 1
@.str.2 = private unnamed_addr constant [4 x i8] c"%d\0A\00", align 1

; Function Attrs: noinline nounwind uwtable
define dso_local void @main() #0 {
  %1 = alloca i32, align 4
  %2 = alloca i32, align 4
  %3 = alloca [100 x [100 x i32]], align 16
  %4 = alloca i32, align 4
  %5 = alloca i32, align 4
  %6 = call i32 (i8*, ...) @__isoc99_scanf(i8* getelementptr inbounds ([5 x i8], [5 x i8]* @.str, i64 0, i64 0), i32* %1, i32* %2)
  store i32 0, i32* %4, align 4
  br label %7

7:                                                ; preds = %28, %0
  %8 = load i32, i32* %4, align 4
  %9 = load i32, i32* %1, align 4
  %10 = icmp slt i32 %8, %9
  br i1 %10, label %11, label %31

11:                                               ; preds = %7
  store i32 0, i32* %5, align 4
  br label %12

12:                                               ; preds = %24, %11
  %13 = load i32, i32* %5, align 4
  %14 = load i32, i32* %2, align 4
  %15 = icmp slt i32 %13, %14
  br i1 %15, label %16, label %27

16:                                               ; preds = %12
  %17 = load i32, i32* %4, align 4
  %18 = sext i32 %17 to i64
  %19 = getelementptr inbounds [100 x [100 x i32]], [100 x [100 x i32]]* %3, i64 0, i64 %18
  %20 = load i32, i32* %5, align 4
  %21 = sext i32 %20 to i64
  %22 = getelementptr inbounds [100 x i32], [100 x i32]* %19, i64 0, i64 %21
  %23 = call i32 (i8*, ...) @__isoc99_scanf(i8* getelementptr inbounds ([3 x i8], [3 x i8]* @.str.1, i64 0, i64 0), i32* %22)
  br label %24

24:                                               ; preds = %16
  %25 = load i32, i32* %5, align 4
  %26 = add nsw i32 %25, 1
  store i32 %26, i32* %5, align 4
  br label %12

27:                                               ; preds = %12
  br label %28

28:                                               ; preds = %27
  %29 = load i32, i32* %4, align 4
  %30 = add nsw i32 %29, 1
  store i32 %30, i32* %4, align 4
  br label %7

31:                                               ; preds = %7
  %32 = getelementptr inbounds [100 x [100 x i32]], [100 x [100 x i32]]* %3, i64 0, i64 0
  %33 = load i32, i32* %1, align 4
  %34 = load i32, i32* %2, align 4
  call void @shun([100 x i32]* %32, i32 %33, i32 %34)
  ret void
}

declare dso_local i32 @__isoc99_scanf(i8*, ...) #1

; Function Attrs: noinline nounwind uwtable
define dso_local void @shun([100 x i32]* %0, i32 %1, i32 %2) #0 {
  %4 = alloca [100 x i32]*, align 8
  %5 = alloca i32, align 4
  %6 = alloca i32, align 4
  %7 = alloca i32, align 4
  %8 = alloca i32, align 4
  %9 = alloca i32, align 4
  %10 = alloca i32, align 4
  %11 = alloca i32, align 4
  %12 = alloca i32, align 4
  store [100 x i32]* %0, [100 x i32]** %4, align 8
  store i32 %1, i32* %5, align 4
  store i32 %2, i32* %6, align 4
  store i32 0, i32* %7, align 4
  store i32 0, i32* %9, align 4
  store i32 0, i32* %10, align 4
  store i32 0, i32* %12, align 4
  %13 = load i32, i32* %5, align 4
  %14 = load i32, i32* %6, align 4
  %15 = mul nsw i32 %13, %14
  store i32 %15, i32* %11, align 4
  br label %16

16:                                               ; preds = %158, %3
  %17 = load i32, i32* %12, align 4
  %18 = load i32, i32* %11, align 4
  %19 = icmp sle i32 %17, %18
  br i1 %19, label %20, label %159

20:                                               ; preds = %16
  %21 = load i32, i32* %7, align 4
  store i32 %21, i32* %8, align 4
  br label %22

22:                                               ; preds = %43, %20
  %23 = load i32, i32* %8, align 4
  %24 = load i32, i32* %6, align 4
  %25 = icmp slt i32 %23, %24
  br i1 %25, label %26, label %46

26:                                               ; preds = %22
  %27 = load [100 x i32]*, [100 x i32]** %4, align 8
  %28 = load i32, i32* %7, align 4
  %29 = sext i32 %28 to i64
  %30 = getelementptr inbounds [100 x i32], [100 x i32]* %27, i64 %29
  %31 = load i32, i32* %8, align 4
  %32 = sext i32 %31 to i64
  %33 = getelementptr inbounds [100 x i32], [100 x i32]* %30, i64 0, i64 %32
  %34 = load i32, i32* %33, align 4
  %35 = call i32 (i8*, ...) @printf(i8* getelementptr inbounds ([4 x i8], [4 x i8]* @.str.2, i64 0, i64 0), i32 %34)
  %36 = load i32, i32* %12, align 4
  %37 = add nsw i32 %36, 1
  store i32 %37, i32* %12, align 4
  %38 = load i32, i32* %12, align 4
  %39 = load i32, i32* %11, align 4
  %40 = icmp eq i32 %38, %39
  br i1 %40, label %41, label %42

41:                                               ; preds = %26
  br label %46

42:                                               ; preds = %26
  br label %43

43:                                               ; preds = %42
  %44 = load i32, i32* %8, align 4
  %45 = add nsw i32 %44, 1
  store i32 %45, i32* %8, align 4
  br label %22

46:                                               ; preds = %41, %22
  %47 = load i32, i32* %7, align 4
  %48 = add nsw i32 %47, 1
  store i32 %48, i32* %7, align 4
  %49 = load i32, i32* %12, align 4
  %50 = load i32, i32* %11, align 4
  %51 = icmp eq i32 %49, %50
  br i1 %51, label %52, label %53

52:                                               ; preds = %46
  br label %159

53:                                               ; preds = %46
  %54 = load i32, i32* %7, align 4
  store i32 %54, i32* %8, align 4
  br label %55

55:                                               ; preds = %77, %53
  %56 = load i32, i32* %8, align 4
  %57 = load i32, i32* %5, align 4
  %58 = icmp slt i32 %56, %57
  br i1 %58, label %59, label %80

59:                                               ; preds = %55
  %60 = load [100 x i32]*, [100 x i32]** %4, align 8
  %61 = load i32, i32* %8, align 4
  %62 = sext i32 %61 to i64
  %63 = getelementptr inbounds [100 x i32], [100 x i32]* %60, i64 %62
  %64 = load i32, i32* %6, align 4
  %65 = sub nsw i32 %64, 1
  %66 = sext i32 %65 to i64
  %67 = getelementptr inbounds [100 x i32], [100 x i32]* %63, i64 0, i64 %66
  %68 = load i32, i32* %67, align 4
  %69 = call i32 (i8*, ...) @printf(i8* getelementptr inbounds ([4 x i8], [4 x i8]* @.str.2, i64 0, i64 0), i32 %68)
  %70 = load i32, i32* %12, align 4
  %71 = add nsw i32 %70, 1
  store i32 %71, i32* %12, align 4
  %72 = load i32, i32* %12, align 4
  %73 = load i32, i32* %11, align 4
  %74 = icmp eq i32 %72, %73
  br i1 %74, label %75, label %76

75:                                               ; preds = %59
  br label %80

76:                                               ; preds = %59
  br label %77

77:                                               ; preds = %76
  %78 = load i32, i32* %8, align 4
  %79 = add nsw i32 %78, 1
  store i32 %79, i32* %8, align 4
  br label %55

80:                                               ; preds = %75, %55
  %81 = load i32, i32* %6, align 4
  %82 = sub nsw i32 %81, 1
  store i32 %82, i32* %6, align 4
  %83 = load i32, i32* %12, align 4
  %84 = load i32, i32* %11, align 4
  %85 = icmp eq i32 %83, %84
  br i1 %85, label %86, label %87

86:                                               ; preds = %80
  br label %159

87:                                               ; preds = %80
  %88 = load i32, i32* %6, align 4
  %89 = sub nsw i32 %88, 1
  store i32 %89, i32* %8, align 4
  br label %90

90:                                               ; preds = %112, %87
  %91 = load i32, i32* %8, align 4
  %92 = load i32, i32* %9, align 4
  %93 = icmp sge i32 %91, %92
  br i1 %93, label %94, label %115

94:                                               ; preds = %90
  %95 = load [100 x i32]*, [100 x i32]** %4, align 8
  %96 = load i32, i32* %5, align 4
  %97 = sub nsw i32 %96, 1
  %98 = sext i32 %97 to i64
  %99 = getelementptr inbounds [100 x i32], [100 x i32]* %95, i64 %98
  %100 = load i32, i32* %8, align 4
  %101 = sext i32 %100 to i64
  %102 = getelementptr inbounds [100 x i32], [100 x i32]* %99, i64 0, i64 %101
  %103 = load i32, i32* %102, align 4
  %104 = call i32 (i8*, ...) @printf(i8* getelementptr inbounds ([4 x i8], [4 x i8]* @.str.2, i64 0, i64 0), i32 %103)
  %105 = load i32, i32* %12, align 4
  %106 = add nsw i32 %105, 1
  store i32 %106, i32* %12, align 4
  %107 = load i32, i32* %12, align 4
  %108 = load i32, i32* %11, align 4
  %109 = icmp eq i32 %107, %108
  br i1 %109, label %110, label %111

110:                                              ; preds = %94
  br label %115

111:                                              ; preds = %94
  br label %112

112:                                              ; preds = %111
  %113 = load i32, i32* %8, align 4
  %114 = add nsw i32 %113, -1
  store i32 %114, i32* %8, align 4
  br label %90

115:                                              ; preds = %110, %90
  %116 = load i32, i32* %5, align 4
  %117 = sub nsw i32 %116, 1
  store i32 %117, i32* %5, align 4
  %118 = load i32, i32* %9, align 4
  %119 = add nsw i32 %118, 1
  store i32 %119, i32* %9, align 4
  %120 = load i32, i32* %12, align 4
  %121 = load i32, i32* %11, align 4
  %122 = icmp eq i32 %120, %121
  br i1 %122, label %123, label %124

123:                                              ; preds = %115
  br label %159

124:                                              ; preds = %115
  %125 = load i32, i32* %5, align 4
  %126 = sub nsw i32 %125, 1
  store i32 %126, i32* %8, align 4
  br label %127

127:                                              ; preds = %148, %124
  %128 = load i32, i32* %8, align 4
  %129 = load i32, i32* %7, align 4
  %130 = icmp sge i32 %128, %129
  br i1 %130, label %131, label %151

131:                                              ; preds = %127
  %132 = load [100 x i32]*, [100 x i32]** %4, align 8
  %133 = load i32, i32* %8, align 4
  %134 = sext i32 %133 to i64
  %135 = getelementptr inbounds [100 x i32], [100 x i32]* %132, i64 %134
  %136 = load i32, i32* %10, align 4
  %137 = sext i32 %136 to i64
  %138 = getelementptr inbounds [100 x i32], [100 x i32]* %135, i64 0, i64 %137
  %139 = load i32, i32* %138, align 4
  %140 = call i32 (i8*, ...) @printf(i8* getelementptr inbounds ([4 x i8], [4 x i8]* @.str.2, i64 0, i64 0), i32 %139)
  %141 = load i32, i32* %12, align 4
  %142 = add nsw i32 %141, 1
  store i32 %142, i32* %12, align 4
  %143 = load i32, i32* %12, align 4
  %144 = load i32, i32* %11, align 4
  %145 = icmp eq i32 %143, %144
  br i1 %145, label %146, label %147

146:                                              ; preds = %131
  br label %151

147:                                              ; preds = %131
  br label %148

148:                                              ; preds = %147
  %149 = load i32, i32* %8, align 4
  %150 = add nsw i32 %149, -1
  store i32 %150, i32* %8, align 4
  br label %127

151:                                              ; preds = %146, %127
  %152 = load i32, i32* %10, align 4
  %153 = add nsw i32 %152, 1
  store i32 %153, i32* %10, align 4
  %154 = load i32, i32* %12, align 4
  %155 = load i32, i32* %11, align 4
  %156 = icmp eq i32 %154, %155
  br i1 %156, label %157, label %158

157:                                              ; preds = %151
  br label %159

158:                                              ; preds = %151
  br label %16

159:                                              ; preds = %157, %123, %86, %52, %16
  ret void
}

declare dso_local i32 @printf(i8*, ...) #1


!llvm.module.flags = !{!0}
!llvm.ident = !{!1}

!0 = !{i32 1, !"wchar_size", i32 4}
!1 = !{!"clang version 10.0.0-4ubuntu1 "}
